; Function Attrs: mustprogress nounwind uwtable
define dso_local noundef ptr @_ZN4llvm17LibCallSimplifier15optimizeToAsciiEPNS_8CallInstERNS_13IRBuilderBaseE(ptr nocapture nonnull readnone align 8 %0, ptr nocapture noundef readonly %1, ptr noundef nonnull align 8 dereferenceable(128) %2) local_unnamed_addr #0 align 2 {
  %4 = alloca %"class.llvm::Twine", align 8
  %5 = alloca %"class.llvm::Twine", align 8
  %6 = getelementptr inbounds nuw i8, ptr %1, i64 4
  %7 = load i32, ptr %6, align 4
  %8 = and i32 %7, 134217727
  %9 = zext nneg i32 %8 to i64
  %10 = sub nsw i64 0, %9
  %11 = getelementptr inbounds %"class.llvm::Use", ptr %1, i64 %10
  %12 = load ptr, ptr %11, align 8
  %13 = getelementptr inbounds nuw i8, ptr %1, i64 8
  %14 = load ptr, ptr %13, align 8
  %15 = tail call noundef ptr @_ZN4llvm11ConstantInt3getEPNS_4TypeEmb(ptr noundef %14, i64 noundef 127, i1 noundef zeroext false) #24
  %16 = getelementptr inbounds nuw i8, ptr %5, i64 32
  store i16 257, ptr %16, align 8
  call void @llvm.lifetime.start.p0(i64 40, ptr nonnull %4)
  %17 = getelementptr inbounds nuw i8, ptr %2, i64 80
  %18 = load ptr, ptr %17, align 8
  %19 = load ptr, ptr %18, align 8
  %20 = getelementptr inbounds i8, ptr %19, i64 16
  %21 = load ptr, ptr %20, align 8
  %22 = tail call noundef ptr %21(ptr noundef nonnull align 8 dereferenceable(8) %18, i32 noundef 28, ptr noundef %12, ptr noundef %15) #24
  %.not.i = icmp eq ptr %22, null
  br i1 %.not.i, label %23, label %_ZN4llvm13IRBuilderBase9CreateAndEPNS_5ValueES2_RKNS_5TwineE.exit

23:                                               ; preds = %3
  %24 = getelementptr inbounds nuw i8, ptr %4, i64 32
  store i16 257, ptr %24, align 8
  %25 = call noundef ptr @_ZN4llvm14BinaryOperator6CreateENS_11Instruction9BinaryOpsEPNS_5ValueES4_RKNS_5TwineENS_14InsertPositionE(i32 noundef 28, ptr noundef %12, ptr noundef %15, ptr noundef nonnull align 8 dereferenceable(34) %4, ptr null, i64 0) #24
  %26 = getelementptr inbounds nuw i8, ptr %2, i64 88
  %27 = load ptr, ptr %26, align 8
  %28 = getelementptr inbounds nuw i8, ptr %2, i64 56
  %.sroa.0.0.copyload.i.i = load ptr, ptr %28, align 8
  %.sroa.2.0..sroa_idx.i.i = getelementptr inbounds i8, ptr %2, i64 64
  %.sroa.2.0.copyload.i.i = load i64, ptr %.sroa.2.0..sroa_idx.i.i, align 8
  %29 = load ptr, ptr %27, align 8
  %30 = getelementptr inbounds i8, ptr %29, i64 16
  %31 = load ptr, ptr %30, align 8
  call void %31(ptr noundef nonnull align 8 dereferenceable(8) %27, ptr noundef %25, ptr noundef nonnull align 8 dereferenceable(34) %5, ptr %.sroa.0.0.copyload.i.i, i64 %.sroa.2.0.copyload.i.i) #24
  %32 = load ptr, ptr %2, align 8
  %33 = call noundef i64 @_ZNK4llvm15SmallVectorBaseIjE4sizeEv(ptr noundef nonnull align 8 dereferenceable(16) %2) #24
  %34 = getelementptr inbounds %"struct.std::pair", ptr %32, i64 %33
  %.not10.i.i.i = icmp eq i64 %33, 0
  br i1 %.not10.i.i.i, label %_ZN4llvm13IRBuilderBase9CreateAndEPNS_5ValueES2_RKNS_5TwineE.exit, label %.lr.ph.i.i.i

.lr.ph.i.i.i:                                     ; preds = %23, %.lr.ph.i.i.i
  %.011.i.i.i = phi ptr [ %38, %.lr.ph.i.i.i ], [ %32, %23 ]
  %35 = load i32, ptr %.011.i.i.i, align 8
  %36 = getelementptr inbounds nuw i8, ptr %.011.i.i.i, i64 8
  %37 = load ptr, ptr %36, align 8
  call void @_ZN4llvm11Instruction11setMetadataEjPNS_6MDNodeE(ptr noundef nonnull align 8 dereferenceable(72) %25, i32 noundef %35, ptr noundef %37) #24
  %38 = getelementptr inbounds i8, ptr %.011.i.i.i, i64 16
  %.not.i.i.i = icmp eq ptr %38, %34
  br i1 %.not.i.i.i, label %_ZN4llvm13IRBuilderBase9CreateAndEPNS_5ValueES2_RKNS_5TwineE.exit, label %.lr.ph.i.i.i

_ZN4llvm13IRBuilderBase9CreateAndEPNS_5ValueES2_RKNS_5TwineE.exit: ; preds = %.lr.ph.i.i.i, %3, %23
  %.0.i = phi ptr [ %22, %3 ], [ %25, %23 ], [ %25, %.lr.ph.i.i.i ]
  call void @llvm.lifetime.end.p0(i64 40, ptr nonnull %4)
  ret ptr %.0.i
}